target datalayout = "e-m:e-p270:32:32-p271:32:32-p272:64:64-i64:64-i128:128-f80:128-n8:16:32:64-S128"
target triple = "x86_64-unknown-linux-gnu"

%struct.b2Vec2 = type { float, float }
%struct.b2JointUserData = type { i64 }
%class.b2DistanceJoint = type <{ %class.b2Joint, float, float, float, float, float, float, %struct.b2Vec2, %struct.b2Vec2, float, float, float, float, i32, i32, %struct.b2Vec2, %struct.b2Vec2, %struct.b2Vec2, %struct.b2Vec2, %struct.b2Vec2, float, float, float, float, float, float, float, [4 x i8] }>
%class.b2Joint = type { ptr, i32, ptr, ptr, %struct.b2JointEdge, %struct.b2JointEdge, ptr, ptr, i32, i8, i8, %struct.b2JointUserData }
%struct.b2JointEdge = type { ptr, ptr, ptr, ptr }

; Function Attrs: mustprogress nounwind uwtable
define linkonce_odr hidden noundef float @_Z5b2MaxIfET_S0_S0_(float noundef %a, float noundef %b) #2 comdat {
entry:
  %a.addr = alloca float, align 4
  %b.addr = alloca float, align 4
  store float %a, ptr %a.addr, align 4
  store float %b, ptr %b.addr, align 4
  %0 = load float, ptr %a.addr, align 4
  %1 = load float, ptr %b.addr, align 4
  %cmp = fcmp ogt float %0, %1
  br i1 %cmp, label %cond.true, label %cond.false

cond.true:                                        ; preds = %entry
  %2 = load float, ptr %a.addr, align 4
  br label %cond.end

cond.false:                                       ; preds = %entry
  %3 = load float, ptr %b.addr, align 4
  br label %cond.end

cond.end:                                         ; preds = %cond.false, %cond.true
  %cond = phi float [ %2, %cond.true ], [ %3, %cond.false ]
  ret float %cond
}

; Function Attrs: mustprogress uwtable
define noundef float @_ZN15b2DistanceJoint9SetLengthEf(ptr noundef nonnull align 8 dereferenceable(260) %this, float noundef %length) #3 align 2 {
entry:
  %this.addr = alloca ptr, align 8
  %length.addr = alloca float, align 4
  store ptr %this, ptr %this.addr, align 8
  store float %length, ptr %length.addr, align 4
  %this1 = load ptr, ptr %this.addr, align 8
  %m_impulse = getelementptr inbounds %class.b2DistanceJoint, ptr %this1, i32 0, i32 10
  store float 0.000000e+00, ptr %m_impulse, align 4
  %0 = load float, ptr %length.addr, align 4
  %call = call noundef float @_Z5b2MaxIfET_S0_S0_(float noundef 0x3F747AE140000000, float noundef %0)
  %m_length = getelementptr inbounds %class.b2DistanceJoint, ptr %this1, i32 0, i32 4
  store float %call, ptr %m_length, align 4
  %m_length2 = getelementptr inbounds %class.b2DistanceJoint, ptr %this1, i32 0, i32 4
  %1 = load float, ptr %m_length2, align 4
  ret float %1
}