; Function Attrs: mustprogress nofree norecurse nosync nounwind willreturn memory(argmem: write) uwtable
define noundef float @_ZN15b2DistanceJoint9SetLengthEf(ptr nocapture noundef nonnull writeonly align 8 dereferenceable(260) %this, float noundef %length) local_unnamed_addr #9 align 2 {
entry:
  %m_impulse = getelementptr inbounds i8, ptr %this, i64 172
  store float 0.000000e+00, ptr %m_impulse, align 4
  %cmp.i = fcmp olt float %length, 0x3F747AE140000000
  %cond.i = select i1 %cmp.i, float 0x3F747AE140000000, float %length
  %m_length = getelementptr inbounds i8, ptr %this, i64 140
  store float %cond.i, ptr %m_length, align 4
  ret float %cond.i
}